; Function Attrs: nofree norecurse nosync nounwind memory(read, inaccessiblemem: none) uwtable
define range(i32 0, 2) i32 @Bdc_TableCheckContainment(ptr noundef readonly captures(none) %0, ptr noundef readonly captures(none) %1, ptr noundef readonly captures(none) %2) local_unnamed_addr #0 {
  %4 = getelementptr inbounds nuw i8, ptr %1, i64 8
  %5 = load ptr, ptr %4, align 8, !tbaa !3
  %6 = getelementptr inbounds nuw i8, ptr %0, i64 8
  %7 = load i32, ptr %6, align 8, !tbaa !10
  %8 = icmp slt i32 %7, 6
  %9 = add nsw i32 %7, -5
  %10 = shl nuw i32 1, %9
  %spec.select.i = select i1 %8, i32 1, i32 %10
  %11 = zext i32 %spec.select.i to i64
  br label %select.unfold.i

select.unfold.i:                                  ; preds = %14, %3
  %indvars.iv.i = phi i64 [ %11, %3 ], [ %15, %14 ]
  %12 = trunc nuw i64 %indvars.iv.i to i32
  %13 = icmp sgt i32 %12, 0
  br i1 %13, label %14, label %Kit_TruthIsImply.exit

14:                                               ; preds = %select.unfold.i
  %15 = add nsw i64 %indvars.iv.i, -1
  %16 = getelementptr inbounds nuw i32, ptr %5, i64 %15
  %17 = load i32, ptr %16, align 4, !tbaa !19
  %18 = getelementptr inbounds nuw i32, ptr %2, i64 %15
  %19 = load i32, ptr %18, align 4, !tbaa !19
  %20 = xor i32 %19, -1
  %21 = and i32 %17, %20
  %.not.i = icmp eq i32 %21, 0
  br i1 %.not.i, label %select.unfold.i, label %Kit_TruthIsDisjoint.exit, !llvm.loop !20

Kit_TruthIsImply.exit:                            ; preds = %select.unfold.i
  %22 = getelementptr inbounds nuw i8, ptr %1, i64 16
  %23 = load ptr, ptr %22, align 8, !tbaa !22
  br label %select.unfold.i7

select.unfold.i7:                                 ; preds = %26, %Kit_TruthIsImply.exit
  %indvars.iv.i8 = phi i64 [ %11, %Kit_TruthIsImply.exit ], [ %27, %26 ]
  %24 = trunc nuw i64 %indvars.iv.i8 to i32
  %25 = icmp sgt i32 %24, 0
  br i1 %25, label %26, label %Kit_TruthIsDisjoint.exit

26:                                               ; preds = %select.unfold.i7
  %27 = add nsw i64 %indvars.iv.i8, -1
  %28 = getelementptr inbounds nuw i32, ptr %2, i64 %27
  %29 = load i32, ptr %28, align 4, !tbaa !19
  %30 = getelementptr inbounds nuw i32, ptr %23, i64 %27
  %31 = load i32, ptr %30, align 4, !tbaa !19
  %32 = and i32 %31, %29
  %.not.i10 = icmp eq i32 %32, 0
  br i1 %.not.i10, label %select.unfold.i7, label %Kit_TruthIsDisjoint.exit, !llvm.loop !23

Kit_TruthIsDisjoint.exit:                         ; preds = %14, %26, %select.unfold.i7
  %33 = phi i32 [ 1, %select.unfold.i7 ], [ 0, %26 ], [ 0, %14 ]
  ret i32 %33
}